target datalayout = "e-m:e-p270:32:32-p271:32:32-p272:64:64-i64:64-i128:128-f80:128-n8:16:32:64-S128"
target triple = "x86_64-pc-linux-gnu"

%struct.ma_fader_config = type { i32, i32, i32 }

; Function Attrs: alwaysinline nounwind uwtable
define internal void @ma_zero_memory_default(ptr noundef %0, i64 noundef %1) #7 {
  %3 = alloca ptr, align 8
  %4 = alloca i64, align 8
  store ptr %0, ptr %3, align 8
  store i64 %1, ptr %4, align 8
  %5 = load ptr, ptr %3, align 8
  %6 = icmp eq ptr %5, null
  br i1 %6, label %7, label %8

7:                                                ; preds = %2
  br label %14

8:                                                ; preds = %2
  %9 = load i64, ptr %4, align 8
  %10 = icmp ugt i64 %9, 0
  br i1 %10, label %11, label %14

11:                                               ; preds = %8
  %12 = load ptr, ptr %3, align 8
  %13 = load i64, ptr %4, align 8
  call void @llvm.memset.p0.i64(ptr align 1 %12, i8 0, i64 %13, i1 false)
  br label %14

14:                                               ; preds = %7, %11, %8
  ret void
}

; Function Attrs: nounwind uwtable
define hidden { i64, i32 } @ma_fader_config_init(i32 noundef %0, i32 noundef %1, i32 noundef %2) #0 {
  %4 = alloca %struct.ma_fader_config, align 4
  %5 = alloca i32, align 4
  %6 = alloca i32, align 4
  %7 = alloca i32, align 4
  %8 = alloca { i64, i32 }, align 8
  store i32 %0, ptr %5, align 4
  store i32 %1, ptr %6, align 4
  store i32 %2, ptr %7, align 4
  call void @ma_zero_memory_default(ptr noundef %4, i64 noundef 12)
  %9 = load i32, ptr %5, align 4
  %10 = getelementptr inbounds nuw %struct.ma_fader_config, ptr %4, i32 0, i32 0
  store i32 %9, ptr %10, align 4
  %11 = load i32, ptr %6, align 4
  %12 = getelementptr inbounds nuw %struct.ma_fader_config, ptr %4, i32 0, i32 1
  store i32 %11, ptr %12, align 4
  %13 = load i32, ptr %7, align 4
  %14 = getelementptr inbounds nuw %struct.ma_fader_config, ptr %4, i32 0, i32 2
  store i32 %13, ptr %14, align 4
  call void @llvm.memcpy.p0.p0.i64(ptr align 8 %8, ptr align 4 %4, i64 12, i1 false)
  %15 = load { i64, i32 }, ptr %8, align 8
  ret { i64, i32 } %15
}