; Function Attrs: mustprogress nofree norecurse nosync nounwind willreturn memory(none) uwtable
define hidden { i64, i32 } @ma_fader_config_init(i32 noundef %0, i32 noundef %1, i32 noundef %2) local_unnamed_addr #1 {
  %.sroa.0.sroa.3.0.insert.ext = zext i32 %1 to i64
  %.sroa.0.sroa.3.0.insert.shift = shl nuw i64 %.sroa.0.sroa.3.0.insert.ext, 32
  %.sroa.0.sroa.0.0.insert.ext = zext i32 %0 to i64
  %.sroa.0.sroa.0.0.insert.insert = or disjoint i64 %.sroa.0.sroa.3.0.insert.shift, %.sroa.0.sroa.0.0.insert.ext
  %.fca.0.insert = insertvalue { i64, i32 } poison, i64 %.sroa.0.sroa.0.0.insert.insert, 0
  %.fca.1.insert = insertvalue { i64, i32 } %.fca.0.insert, i32 %2, 1
  ret { i64, i32 } %.fca.1.insert
}